	.file	"fault.c"
	.text
.Ltext0:
	.type	invlpg, @function
invlpg:
.LFB0:
	.file 1 "./arch/x86/include/asm/page.h"
	.loc 1 18 0
	.cfi_startproc
	pushl	%ebp
	.cfi_def_cfa_offset 8
	.cfi_offset 5, -8
	movl	%esp, %ebp
	.cfi_def_cfa_register 5
	.loc 1 19 0
	movl	8(%ebp), %eax
#APP
# 19 "./arch/x86/include/asm/page.h" 1
	invlpg (%eax)
# 0 "" 2
	.loc 1 20 0
#NO_APP
	popl	%ebp
	.cfi_restore 5
	.cfi_def_cfa 4, 4
	ret
	.cfi_endproc
.LFE0:
	.size	invlpg, .-invlpg
	.type	__va2pte, @function
__va2pte:
.LFB1:
	.loc 1 103 0
	.cfi_startproc
	pushl	%ebp
	.cfi_def_cfa_offset 8
	.cfi_offset 5, -8
	movl	%esp, %ebp
	.cfi_def_cfa_register 5
	subl	$16, %esp
	.loc 1 104 0
	cmpl	$0, 12(%ebp)
	jne	.L3
	.loc 1 104 0 is_stmt 0 discriminator 1
	movl	$0, %eax
	jmp	.L5
.L3:
	.loc 1 107 0 is_stmt 1
	movl	8(%ebp), %eax
	movl	%eax, -8(%ebp)
	.loc 1 108 0
	movzwl	-6(%ebp), %eax
	shrw	$6, %ax
	movzwl	%ax, %eax
	leal	0(,%eax,4), %edx
	movl	12(%ebp), %eax
	addl	%edx, %eax
	movl	(%eax), %eax
	andl	$-4096, %eax
	subl	$1073741824, %eax
	movl	%eax, -4(%ebp)
	.loc 1 109 0
	movl	-8(%ebp), %eax
	shrl	$12, %eax
	andw	$1023, %ax
	movzwl	%ax, %eax
	leal	0(,%eax,4), %edx
	movl	-4(%ebp), %eax
	addl	%edx, %eax
.L5:
	.loc 1 110 0 discriminator 1
	leave
	.cfi_restore 5
	.cfi_def_cfa 4, 4
	ret
	.cfi_endproc
.LFE1:
	.size	__va2pte, .-__va2pte
	.comm	mem_entity,4,1
	.type	sti, @function
sti:
.LFB15:
	.file 2 "./include/old/utils.h"
	.loc 2 194 0
	.cfi_startproc
	pushl	%ebp
	.cfi_def_cfa_offset 8
	.cfi_offset 5, -8
	movl	%esp, %ebp
	.cfi_def_cfa_register 5
	.loc 2 195 0
#APP
# 195 "./include/old/utils.h" 1
	sti
# 0 "" 2
	.loc 2 196 0
#NO_APP
	popl	%ebp
	.cfi_restore 5
	.cfi_def_cfa 4, 4
	ret
	.cfi_endproc
.LFE15:
	.size	sti, .-sti
	.type	cli_ex, @function
cli_ex:
.LFB16:
	.loc 2 202 0
	.cfi_startproc
	pushl	%ebp
	.cfi_def_cfa_offset 8
	.cfi_offset 5, -8
	movl	%esp, %ebp
	.cfi_def_cfa_register 5
	subl	$16, %esp
	.loc 2 204 0
#APP
# 204 "./include/old/utils.h" 1
	pushf
	cli
	pop %eax
	andl $0x200, %eax
	
# 0 "" 2
#NO_APP
	movl	%eax, -4(%ebp)
	.loc 2 210 0
	cmpl	$0, -4(%ebp)
	setne	%al
	.loc 2 211 0
	leave
	.cfi_restore 5
	.cfi_def_cfa 4, 4
	ret
	.cfi_endproc
.LFE16:
	.size	cli_ex, .-cli_ex
	.comm	mem_map,4,4
	.comm	zone_dma,240,64
	.comm	zone_normal,240,64
	.comm	zone_highmem,240,64
	.comm	__zones,12,4
	.comm	size_of_zone,12,4
	.type	__alloc_pages, @function
__alloc_pages:
.LFB35:
	.file 3 "./include/old/mmzone.h"
	.loc 3 109 0
	.cfi_startproc
	pushl	%ebp
	.cfi_def_cfa_offset 8
	.cfi_offset 5, -8
	movl	%esp, %ebp
	.cfi_def_cfa_register 5
	subl	$24, %esp
	.loc 3 110 0
	subl	$8, %esp
	pushl	12(%ebp)
	pushl	8(%ebp)
	call	alloc_pages
	addl	$16, %esp
	movl	%eax, %edx
	movl	mem_map, %eax
	subl	%eax, %edx
	movl	%edx, %eax
	sarl	$3, %eax
	imull	$-1431655765, %eax, %eax
	movl	%eax, -12(%ebp)
	.loc 3 111 0
	movl	-12(%ebp), %eax
	sall	$12, %eax
	subl	$1073741824, %eax
	.loc 3 112 0
	leave
	.cfi_restore 5
	.cfi_def_cfa 4, 4
	ret
	.cfi_endproc
.LFE35:
	.size	__alloc_pages, .-__alloc_pages
	.type	__alloc_page, @function
__alloc_page:
.LFB37:
	.loc 3 120 0
	.cfi_startproc
	pushl	%ebp
	.cfi_def_cfa_offset 8
	.cfi_offset 5, -8
	movl	%esp, %ebp
	.cfi_def_cfa_register 5
	subl	$8, %esp
	.loc 3 121 0
	subl	$8, %esp
	pushl	$0
	pushl	8(%ebp)
	call	__alloc_pages
	addl	$16, %esp
	.loc 3 122 0
	leave
	.cfi_restore 5
	.cfi_def_cfa 4, 4
	ret
	.cfi_endproc
.LFE37:
	.size	__alloc_page, .-__alloc_page
	.type	put_page, @function
put_page:
.LFB39:
	.loc 3 134 0
	.cfi_startproc
	pushl	%ebp
	.cfi_def_cfa_offset 8
	.cfi_offset 5, -8
	movl	%esp, %ebp
	.cfi_def_cfa_register 5
	.loc 3 135 0
	movl	8(%ebp), %eax
	movl	8(%eax), %eax
	leal	-1(%eax), %edx
	movl	8(%ebp), %eax
	movl	%edx, 8(%eax)
	.loc 3 136 0
	popl	%ebp
	.cfi_restore 5
	.cfi_def_cfa 4, 4
	ret
	.cfi_endproc
.LFE39:
	.size	put_page, .-put_page
	.comm	__hs_pcb,4,4
	.comm	__ext_pcb,4,4
	.comm	dentry_hashtable,4,4
	.comm	dentry_cache,4,4
	.comm	inode_hashtable,4,4
	.comm	inode_cache,4,4
	.comm	file_cache,4,4
	.comm	irq_desc,192,64
	.local	count_pgerr
	.comm	count_pgerr,4,4
	.section	.rodata
.LC0:
	.string	"double page fault"
	.align 4
.LC1:
	.string	"page error: err_addr:%x, eip:%x, esp:%x\n"
.LC2:
	.string	"page protection error"
.LC3:
	.string	"page not exist error"
.LC4:
	.string	"error code:%s: %c %c\n"
.LC5:
	.string	"attempt to access address 0"
.LC6:
	.string	"OOPs !"
.LC7:
	.string	"../src/arch/x86/mm/fault.c"
.LC8:
	.string	"err_addr >= __3G"
.LC9:
	.string	"kernel space page fault"
.LC10:
	.string	"in vm_area gaps"
	.text
	.globl	do_page_fault
	.type	do_page_fault, @function
do_page_fault:
.LFB51:
	.file 4 "../src/arch/x86/mm/fault.c"
	.loc 4 24 0
	.cfi_startproc
	pushl	%ebp
	.cfi_def_cfa_offset 8
	.cfi_offset 5, -8
	movl	%esp, %ebp
	.cfi_def_cfa_register 5
	subl	$24, %esp
	.loc 4 25 0
	call	cli_ex
	movzbl	%al, %eax
	movl	%eax, -12(%ebp)
	.loc 4 27 0
	movl	count_pgerr, %eax
	addl	$1, %eax
	movl	%eax, count_pgerr
	movl	count_pgerr, %eax
	cmpl	$1, %eax
	jle	.L15
	.loc 4 27 0 is_stmt 0 discriminator 1
	subl	$12, %esp
	pushl	$.LC0
	call	spin
	addl	$16, %esp
.L15:
	.loc 4 29 0 is_stmt 1
#APP
# 29 "../src/arch/x86/mm/fault.c" 1
	movl %cr2,%eax
# 0 "" 2
#NO_APP
	movl	%eax, -16(%ebp)
	.loc 4 35 0
	movl	8(%ebp), %eax
	movl	60(%eax), %edx
	movl	8(%ebp), %eax
	movl	48(%eax), %eax
	pushl	%edx
	pushl	%eax
	pushl	-16(%ebp)
	pushl	$.LC1
	call	oprintf
	addl	$16, %esp
	.loc 4 38 0
	movzbl	12(%ebp), %eax
	andl	$2, %eax
	.loc 4 36 0
	testb	%al, %al
	je	.L16
	.loc 4 36 0 is_stmt 0 discriminator 1
	movl	$87, %ecx
	jmp	.L17
.L16:
	.loc 4 36 0 discriminator 2
	movl	$82, %ecx
.L17:
	.loc 4 37 0 is_stmt 1 discriminator 4
	movzbl	12(%ebp), %eax
	andl	$4, %eax
	.loc 4 36 0 discriminator 4
	testb	%al, %al
	je	.L18
	.loc 4 36 0 is_stmt 0 discriminator 5
	movl	$85, %edx
	jmp	.L19
.L18:
	.loc 4 36 0 discriminator 6
	movl	$83, %edx
.L19:
	.loc 4 37 0 is_stmt 1 discriminator 8
	movzbl	12(%ebp), %eax
	andl	$1, %eax
	.loc 4 36 0 discriminator 8
	testb	%al, %al
	je	.L20
	.loc 4 36 0 is_stmt 0 discriminator 9
	movl	$.LC2, %eax
	jmp	.L21
.L20:
	.loc 4 36 0 discriminator 10
	movl	$.LC3, %eax
.L21:
	.loc 4 36 0 discriminator 12
	pushl	%ecx
	pushl	%edx
	pushl	%eax
	pushl	$.LC4
	call	oprintf
	addl	$16, %esp
	.loc 4 41 0 is_stmt 1 discriminator 12
	cmpl	$0, -16(%ebp)
	jne	.L22
	.loc 4 41 0 is_stmt 0 discriminator 1
	subl	$12, %esp
	pushl	$.LC5
	call	spin
	addl	$16, %esp
.L22:
	.loc 4 42 0 is_stmt 1
	call	in_interrupt
	testb	%al, %al
	jne	.L23
	.loc 4 42 0 is_stmt 0 discriminator 2
	call	get_current
	movl	56(%eax), %eax
	testl	%eax, %eax
	jne	.L24
.L23:
	.loc 4 42 0 discriminator 3
	subl	$12, %esp
	pushl	$.LC6
	call	spin
	addl	$16, %esp
.L24:
	.loc 4 44 0 is_stmt 1
	movzbl	12(%ebp), %eax
	andl	$1, %eax
	testb	%al, %al
	jne	.L25
.LBB2:
	.loc 4 45 0
	call	get_current
	movl	56(%eax), %eax
	subl	$8, %esp
	pushl	-16(%ebp)
	pushl	%eax
	call	find_vma
	addl	$16, %esp
	movl	%eax, -20(%ebp)
	.loc 4 46 0
	cmpl	$0, -20(%ebp)
	jne	.L26
	.loc 4 47 0
	cmpl	$-1073741825, -16(%ebp)
	ja	.L27
	.loc 4 47 0 is_stmt 0 discriminator 1
	pushl	$47
	pushl	$.LC7
	pushl	$.LC7
	pushl	$.LC8
	call	assert_func
	addl	$16, %esp
.L27:
	.loc 4 48 0 is_stmt 1
	subl	$12, %esp
	pushl	$.LC9
	call	spin
	addl	$16, %esp
.L26:
	.loc 4 50 0
	movl	-20(%ebp), %eax
	movl	4(%eax), %eax
	cmpl	-16(%ebp), %eax
	ja	.L28
	.loc 4 51 0
	movl	-20(%ebp), %eax
	movl	28(%eax), %eax
	testl	%eax, %eax
	je	.L29
	.loc 4 51 0 is_stmt 0 discriminator 1
	movl	-20(%ebp), %eax
	movl	28(%eax), %eax
	movl	8(%eax), %eax
	testl	%eax, %eax
	je	.L29
	.loc 4 52 0 is_stmt 1
	movl	-20(%ebp), %eax
	movl	28(%eax), %eax
	movl	8(%eax), %eax
	subl	$4, %esp
	pushl	12(%ebp)
	pushl	-16(%ebp)
	pushl	-20(%ebp)
	call	*%eax
	addl	$16, %esp
	jmp	.L31
.L29:
	.loc 4 55 0
	subl	$4, %esp
	pushl	12(%ebp)
	pushl	-16(%ebp)
	pushl	-20(%ebp)
	call	common_no_page
	addl	$16, %esp
	jmp	.L31
.L28:
	.loc 4 58 0
	subl	$12, %esp
	pushl	$.LC10
	call	spin
	addl	$16, %esp
.LBE2:
	jmp	.L32
.L31:
	jmp	.L32
.L25:
	.loc 4 61 0
	subl	$4, %esp
	pushl	12(%ebp)
	pushl	8(%ebp)
	pushl	-16(%ebp)
	call	on_protection_error
	addl	$16, %esp
.L32:
	.loc 4 64 0
	movl	count_pgerr, %eax
	subl	$1, %eax
	movl	%eax, count_pgerr
	.loc 4 65 0
	cmpl	$0, -12(%ebp)
	je	.L33
	.loc 4 65 0 is_stmt 0 discriminator 1
	call	sti
.L33:
	.loc 4 66 0 is_stmt 1
	nop
	.loc 4 67 0
	leave
	.cfi_restore 5
	.cfi_def_cfa 4, 4
	ret
	.cfi_endproc
.LFE51:
	.size	do_page_fault, .-do_page_fault
	.section	.rodata
.LC11:
	.string	"kernel fault !"
.LC12:
	.string	"page fault on read!"
.LC13:
	.string	" you touched kernel space !"
.LC14:
	.string	"in gap !"
	.text
	.type	on_protection_error, @function
on_protection_error:
.LFB52:
	.loc 4 70 0
	.cfi_startproc
	pushl	%ebp
	.cfi_def_cfa_offset 8
	.cfi_offset 5, -8
	movl	%esp, %ebp
	.cfi_def_cfa_register 5
	subl	$40, %esp
	.loc 4 71 0
	movzbl	16(%ebp), %eax
	andl	$4, %eax
	testb	%al, %al
	jne	.L36
	.loc 4 71 0 is_stmt 0 discriminator 1
	subl	$12, %esp
	pushl	$.LC11
	call	spin
	addl	$16, %esp
.L36:
	.loc 4 72 0 is_stmt 1
	movzbl	16(%ebp), %eax
	andl	$2, %eax
	testb	%al, %al
	jne	.L37
	.loc 4 72 0 is_stmt 0 discriminator 1
	subl	$12, %esp
	pushl	$.LC12
	call	spin
	addl	$16, %esp
.L37:
	.loc 4 75 0 is_stmt 1
	call	get_current
	movl	56(%eax), %eax
	subl	$8, %esp
	pushl	8(%ebp)
	pushl	%eax
	call	find_vma
	addl	$16, %esp
	movl	%eax, -12(%ebp)
	.loc 4 76 0
	cmpl	$0, -12(%ebp)
	jne	.L38
	.loc 4 76 0 is_stmt 0 discriminator 1
	subl	$12, %esp
	pushl	$.LC13
	call	spin
	addl	$16, %esp
.L38:
	.loc 4 77 0 is_stmt 1
	movl	-12(%ebp), %eax
	movl	4(%eax), %eax
	cmpl	8(%ebp), %eax
	ja	.L39
.LBB3:
	.loc 4 78 0
	movl	-12(%ebp), %eax
	movl	16(%eax), %eax
	movl	%eax, -36(%ebp)
	.loc 4 79 0
	movzbl	-36(%ebp), %eax
	andl	$8, %eax
	testb	%al, %al
	jne	.L40
	.loc 4 79 0 is_stmt 0 discriminator 1
	movzbl	-36(%ebp), %eax
	andl	$32, %eax
	testb	%al, %al
	je	.L40
	.loc 4 79 0 discriminator 3
	movl	$1, %eax
	jmp	.L41
.L40:
	.loc 4 79 0 discriminator 4
	movl	$0, %eax
.L41:
	.loc 4 79 0 discriminator 6
	movb	%al, -13(%ebp)
	andb	$1, -13(%ebp)
	.loc 4 80 0 is_stmt 1 discriminator 6
	cmpb	$0, -13(%ebp)
	je	.L42
.LBB4:
	.loc 4 86 0
	movl	8(%ebp), %eax
	andl	$-4096, %eax
	movl	%eax, -20(%ebp)
	.loc 4 87 0
	movl	mem_map, %ecx
	movl	8(%ebp), %eax
	addl	$1073741824, %eax
	shrl	$12, %eax
	movl	%eax, %edx
	movl	%edx, %eax
	addl	%eax, %eax
	addl	%edx, %eax
	sall	$3, %eax
	addl	%ecx, %eax
	movl	%eax, -24(%ebp)
	.loc 4 88 0
	call	get_current
	movl	56(%eax), %eax
	movl	(%eax), %eax
	andl	$-4096, %eax
	subl	$1073741824, %eax
	movl	%eax, %edx
	movl	8(%ebp), %eax
	subl	$8, %esp
	pushl	%edx
	pushl	%eax
	call	__va2pte
	addl	$16, %esp
	movl	%eax, -28(%ebp)
	.loc 4 90 0
	movl	-28(%ebp), %eax
	movzbl	(%eax), %edx
	orl	$2, %edx
	movb	%dl, (%eax)
	.loc 4 91 0
	movl	-24(%ebp), %eax
	movl	8(%eax), %eax
	cmpl	$1, %eax
	jne	.L43
	.loc 4 92 0
	jmp	.L44
.L43:
	.loc 4 96 0
	subl	$12, %esp
	pushl	$0
	call	__alloc_page
	addl	$16, %esp
	movl	%eax, -32(%ebp)
	.loc 4 97 0
	subl	$4, %esp
	pushl	$4096
	pushl	-20(%ebp)
	pushl	-32(%ebp)
	call	memcpy
	addl	$16, %esp
	.loc 4 99 0
	subl	$12, %esp
	pushl	-24(%ebp)
	call	put_page
	addl	$16, %esp
	.loc 4 100 0
	movl	-28(%ebp), %eax
	movl	(%eax), %eax
	movl	%eax, %edx
	movl	-32(%ebp), %eax
	addl	$1073741824, %eax
	orl	%edx, %eax
	movl	%eax, %edx
	movl	-28(%ebp), %eax
	movl	%edx, (%eax)
.L44:
	.loc 4 103 0
	movl	8(%ebp), %eax
	subl	$12, %esp
	pushl	%eax
	call	invlpg
	addl	$16, %esp
.LBE4:
.LBE3:
	jmp	.L45
.L42:
	jmp	.L45
.L39:
	.loc 4 107 0
	subl	$12, %esp
	pushl	$.LC14
	call	spin
	addl	$16, %esp
.L45:
	.loc 4 109 0
	movl	$0, %eax
	.loc 4 110 0
	leave
	.cfi_restore 5
	.cfi_def_cfa 4, 4
	ret
	.cfi_endproc
.LFE52:
	.size	on_protection_error, .-on_protection_error
	.section	.rodata
.LC15:
	.string	"breakpoint fault\n"
	.text
	.globl	do_breakpoint_fault
	.type	do_breakpoint_fault, @function
do_breakpoint_fault:
.LFB53:
	.loc 4 112 0
	.cfi_startproc
	pushl	%ebp
	.cfi_def_cfa_offset 8
	.cfi_offset 5, -8
	movl	%esp, %ebp
	.cfi_def_cfa_register 5
	subl	$8, %esp
	.loc 4 113 0
	subl	$12, %esp
	pushl	$.LC15
	call	spin
	addl	$16, %esp
	.loc 4 114 0
	movl	$0, %eax
	.loc 4 115 0
	leave
	.cfi_restore 5
	.cfi_def_cfa 4, 4
	ret
	.cfi_endproc
.LFE53:
	.size	do_breakpoint_fault, .-do_breakpoint_fault
.Letext0:
	.file 5 "./include/old/valType.h"
	.file 6 "./include/old/list.h"
	.file 7 "./include/linux/sched.h"
	.file 8 "./include/linux/mm.h"
	.file 9 "./include/linux/fs.h"
	.file 10 "./include/asm/resource.h"
	.file 11 "./include/old/proc.h"
	.file 12 "./include/linux/dcache.h"
	.file 13 "./include/linux/mount.h"
	.file 14 "./include/old/irq.h"
	.file 15 "./include/old/ku_utils.h"
	.section	.note.GNU-stack,"",@progbits
