	.file	"i8259.c"
	.text
.Ltext0:
	.comm	irq_desc,192,64
	.comm	mem_entity,4,1
	.comm	mem_map,4,4
	.comm	zone_dma,240,64
	.comm	zone_normal,240,64
	.comm	zone_highmem,240,64
	.comm	__zones,12,4
	.comm	size_of_zone,12,4
	.globl	i8259_mask
	.type	i8259_mask, @function
i8259_mask:
.LFB46:
	.file 1 "i8259.c"
	.loc 1 28 0
	.cfi_startproc
	pushl	%ebp
	.cfi_def_cfa_offset 8
	.cfi_offset 5, -8
	movl	%esp, %ebp
	.cfi_def_cfa_register 5
	pushl	%ebx
	subl	$36, %esp
	.cfi_offset 3, -12
	movl	8(%ebp), %eax
	movb	%al, -28(%ebp)
	.loc 1 32 0
	cmpb	$7, -28(%ebp)
	ja	.L2
	.loc 1 33 0
	movw	$33, -10(%ebp)
	jmp	.L3
.L2:
	.loc 1 35 0
	movw	$161, -10(%ebp)
	.loc 1 36 0
	subb	$8, -28(%ebp)
.L3:
	.loc 1 38 0
	movzwl	-10(%ebp), %eax
	subl	$12, %esp
	pushl	%eax
	call	in_byte
	addl	$16, %esp
	movl	%eax, %edx
	movzbl	-28(%ebp), %eax
	movl	$1, %ebx
	movl	%eax, %ecx
	sall	%cl, %ebx
	movl	%ebx, %eax
	orl	%edx, %eax
	movb	%al, -11(%ebp)
	.loc 1 39 0
	movzbl	-11(%ebp), %edx
	movzwl	-10(%ebp), %eax
	subl	$8, %esp
	pushl	%edx
	pushl	%eax
	call	out_byte
	addl	$16, %esp
	.loc 1 40 0
	movl	-4(%ebp), %ebx
	leave
	.cfi_restore 5
	.cfi_restore 3
	.cfi_def_cfa 4, 4
	ret
	.cfi_endproc
.LFE46:
	.size	i8259_mask, .-i8259_mask
	.globl	i8259_unmask
	.type	i8259_unmask, @function
i8259_unmask:
.LFB47:
	.loc 1 42 0
	.cfi_startproc
	pushl	%ebp
	.cfi_def_cfa_offset 8
	.cfi_offset 5, -8
	movl	%esp, %ebp
	.cfi_def_cfa_register 5
	pushl	%ebx
	subl	$36, %esp
	.cfi_offset 3, -12
	movl	8(%ebp), %eax
	movb	%al, -28(%ebp)
	.loc 1 46 0
	cmpb	$7, -28(%ebp)
	ja	.L5
	.loc 1 47 0
	movw	$33, -10(%ebp)
	jmp	.L6
.L5:
	.loc 1 49 0
	movw	$161, -10(%ebp)
	.loc 1 50 0
	subb	$8, -28(%ebp)
.L6:
	.loc 1 52 0
	movzwl	-10(%ebp), %eax
	subl	$12, %esp
	pushl	%eax
	call	in_byte
	addl	$16, %esp
	movl	%eax, %edx
	movzbl	-28(%ebp), %eax
	movl	$1, %ebx
	movl	%eax, %ecx
	sall	%cl, %ebx
	movl	%ebx, %eax
	notl	%eax
	andl	%edx, %eax
	movb	%al, -11(%ebp)
	.loc 1 53 0
	movzbl	-11(%ebp), %edx
	movzwl	-10(%ebp), %eax
	subl	$8, %esp
	pushl	%edx
	pushl	%eax
	call	out_byte
	addl	$16, %esp
	.loc 1 54 0
	movl	-4(%ebp), %ebx
	leave
	.cfi_restore 5
	.cfi_restore 3
	.cfi_def_cfa 4, 4
	ret
	.cfi_endproc
.LFE47:
	.size	i8259_unmask, .-i8259_unmask
	.type	__pic_get_irq_reg, @function
__pic_get_irq_reg:
.LFB48:
	.loc 1 61 0
	.cfi_startproc
	pushl	%ebp
	.cfi_def_cfa_offset 8
	.cfi_offset 5, -8
	movl	%esp, %ebp
	.cfi_def_cfa_register 5
	pushl	%ebx
	subl	$4, %esp
	.cfi_offset 3, -12
	.loc 1 64 0
	movl	8(%ebp), %eax
	subl	$8, %esp
	pushl	%eax
	pushl	$32
	call	out_byte
	addl	$16, %esp
	.loc 1 65 0
	movl	8(%ebp), %eax
	subl	$8, %esp
	pushl	%eax
	pushl	$160
	call	out_byte
	addl	$16, %esp
	.loc 1 66 0
	subl	$12, %esp
	pushl	$160
	call	in_byte
	addl	$16, %esp
	movzbl	%al, %eax
	sall	$8, %eax
	movl	%eax, %ebx
	subl	$12, %esp
	pushl	$32
	call	in_byte
	addl	$16, %esp
	movzbl	%al, %eax
	orl	%ebx, %eax
	.loc 1 67 0
	movl	-4(%ebp), %ebx
	leave
	.cfi_restore 5
	.cfi_restore 3
	.cfi_def_cfa 4, 4
	ret
	.cfi_endproc
.LFE48:
	.size	__pic_get_irq_reg, .-__pic_get_irq_reg
	.globl	pic_get_irr
	.type	pic_get_irr, @function
pic_get_irr:
.LFB49:
	.loc 1 71 0
	.cfi_startproc
	pushl	%ebp
	.cfi_def_cfa_offset 8
	.cfi_offset 5, -8
	movl	%esp, %ebp
	.cfi_def_cfa_register 5
	subl	$8, %esp
	.loc 1 72 0
	subl	$12, %esp
	pushl	$10
	call	__pic_get_irq_reg
	addl	$16, %esp
	.loc 1 73 0
	leave
	.cfi_restore 5
	.cfi_def_cfa 4, 4
	ret
	.cfi_endproc
.LFE49:
	.size	pic_get_irr, .-pic_get_irr
	.globl	pic_get_isr
	.type	pic_get_isr, @function
pic_get_isr:
.LFB50:
	.loc 1 77 0
	.cfi_startproc
	pushl	%ebp
	.cfi_def_cfa_offset 8
	.cfi_offset 5, -8
	movl	%esp, %ebp
	.cfi_def_cfa_register 5
	subl	$8, %esp
	.loc 1 78 0
	subl	$12, %esp
	pushl	$11
	call	__pic_get_irq_reg
	addl	$16, %esp
	.loc 1 79 0
	leave
	.cfi_restore 5
	.cfi_def_cfa 4, 4
	ret
	.cfi_endproc
.LFE50:
	.size	pic_get_isr, .-pic_get_isr
	.type	end_8259A, @function
end_8259A:
.LFB51:
	.loc 1 80 0
	.cfi_startproc
	pushl	%ebp
	.cfi_def_cfa_offset 8
	.cfi_offset 5, -8
	movl	%esp, %ebp
	.cfi_def_cfa_register 5
	.loc 1 82 0
	popl	%ebp
	.cfi_restore 5
	.cfi_def_cfa 4, 4
	ret
	.cfi_endproc
.LFE51:
	.size	end_8259A, .-end_8259A
	.globl	mask_and_ack_8259A
	.type	mask_and_ack_8259A, @function
mask_and_ack_8259A:
.LFB52:
	.loc 1 90 0
	.cfi_startproc
	pushl	%ebp
	.cfi_def_cfa_offset 8
	.cfi_offset 5, -8
	movl	%esp, %ebp
	.cfi_def_cfa_register 5
	subl	$8, %esp
	.loc 1 91 0
	cmpl	$7, 8(%ebp)
	jbe	.L15
	.loc 1 91 0 is_stmt 0 discriminator 1
	subl	$8, %esp
	pushl	$32
	pushl	$160
	call	out_byte
	addl	$16, %esp
.L15:
	.loc 1 92 0 is_stmt 1
	subl	$8, %esp
	pushl	$32
	pushl	$32
	call	out_byte
	addl	$16, %esp
	.loc 1 93 0
	leave
	.cfi_restore 5
	.cfi_def_cfa 4, 4
	ret
	.cfi_endproc
.LFE52:
	.size	mask_and_ack_8259A, .-mask_and_ack_8259A
	.type	write_imr_bit, @function
write_imr_bit:
.LFB53:
	.loc 1 95 0
	.cfi_startproc
	pushl	%ebp
	.cfi_def_cfa_offset 8
	.cfi_offset 5, -8
	movl	%esp, %ebp
	.cfi_def_cfa_register 5
	subl	$40, %esp
	movl	8(%ebp), %eax
	movb	%al, -28(%ebp)
	.loc 1 96 0
	cmpb	$0, -28(%ebp)
	je	.L17
	.loc 1 96 0 is_stmt 0 discriminator 1
	movl	$33, %eax
	jmp	.L18
.L17:
	.loc 1 96 0 discriminator 2
	movl	$161, %eax
.L18:
	.loc 1 96 0 discriminator 4
	movl	%eax, -12(%ebp)
	.loc 1 97 0 is_stmt 1 discriminator 4
	movl	-12(%ebp), %eax
	subl	$12, %esp
	pushl	%eax
	call	in_byte
	addl	$16, %esp
	movzbl	%al, %eax
	movl	%eax, -16(%ebp)
	.loc 1 98 0 discriminator 4
	cmpl	$0, 16(%ebp)
	je	.L19
	.loc 1 98 0 is_stmt 0 discriminator 1
	subl	$8, %esp
	pushl	12(%ebp)
	leal	-16(%ebp), %eax
	pushl	%eax
	call	__bt
	addl	$16, %esp
	jmp	.L20
.L19:
	.loc 1 99 0 is_stmt 1
	subl	$8, %esp
	pushl	12(%ebp)
	leal	-16(%ebp), %eax
	pushl	%eax
	call	__btr
	addl	$16, %esp
.L20:
	.loc 1 100 0
	movl	-16(%ebp), %edx
	movl	-12(%ebp), %eax
	subl	$8, %esp
	pushl	%edx
	pushl	%eax
	call	out_byte
	addl	$16, %esp
	.loc 1 101 0
	leave
	.cfi_restore 5
	.cfi_def_cfa 4, 4
	ret
	.cfi_endproc
.LFE53:
	.size	write_imr_bit, .-write_imr_bit
	.section	.rodata
.LC0:
	.string	"i8259.c"
	.align 4
.LC1:
	.string	"irq != 2 && irq >= 0 && irq < NR_IRQS"
	.text
	.type	write_imr_by_irq, @function
write_imr_by_irq:
.LFB54:
	.loc 1 103 0
	.cfi_startproc
	pushl	%ebp
	.cfi_def_cfa_offset 8
	.cfi_offset 5, -8
	movl	%esp, %ebp
	.cfi_def_cfa_register 5
	subl	$8, %esp
	.loc 1 104 0
	cmpl	$2, 8(%ebp)
	je	.L22
	.loc 1 104 0 is_stmt 0 discriminator 2
	cmpl	$0, 8(%ebp)
	js	.L22
	.loc 1 104 0 discriminator 4
	cmpl	$15, 8(%ebp)
	jle	.L23
.L22:
	.loc 1 104 0 discriminator 5
	pushl	$104
	pushl	$.LC0
	pushl	$.LC0
	pushl	$.LC1
	call	assert_func
	addl	$16, %esp
.L23:
	.loc 1 106 0 is_stmt 1
	cmpl	$7, 8(%ebp)
	jle	.L24
	.loc 1 107 0
	subl	$8, 8(%ebp)
	.loc 1 108 0
	subl	$4, %esp
	pushl	12(%ebp)
	pushl	8(%ebp)
	pushl	$0
	call	write_imr_bit
	addl	$16, %esp
	jmp	.L21
.L24:
	.loc 1 110 0
	subl	$4, %esp
	pushl	12(%ebp)
	pushl	8(%ebp)
	pushl	$1
	call	write_imr_bit
	addl	$16, %esp
.L21:
	.loc 1 111 0
	leave
	.cfi_restore 5
	.cfi_def_cfa 4, 4
	ret
	.cfi_endproc
.LFE54:
	.size	write_imr_by_irq, .-write_imr_by_irq
	.globl	enable_8259A_irq
	.type	enable_8259A_irq, @function
enable_8259A_irq:
.LFB55:
	.loc 1 113 0
	.cfi_startproc
	pushl	%ebp
	.cfi_def_cfa_offset 8
	.cfi_offset 5, -8
	movl	%esp, %ebp
	.cfi_def_cfa_register 5
	subl	$8, %esp
	.loc 1 114 0
	movl	8(%ebp), %eax
	subl	$8, %esp
	pushl	$0
	pushl	%eax
	call	write_imr_by_irq
	addl	$16, %esp
	.loc 1 115 0
	leave
	.cfi_restore 5
	.cfi_def_cfa 4, 4
	ret
	.cfi_endproc
.LFE55:
	.size	enable_8259A_irq, .-enable_8259A_irq
	.globl	disable_8259A_irq
	.type	disable_8259A_irq, @function
disable_8259A_irq:
.LFB56:
	.loc 1 117 0
	.cfi_startproc
	pushl	%ebp
	.cfi_def_cfa_offset 8
	.cfi_offset 5, -8
	movl	%esp, %ebp
	.cfi_def_cfa_register 5
	subl	$8, %esp
	.loc 1 118 0
	movl	8(%ebp), %eax
	subl	$8, %esp
	pushl	$1
	pushl	%eax
	call	write_imr_by_irq
	addl	$16, %esp
	.loc 1 119 0
	leave
	.cfi_restore 5
	.cfi_def_cfa 4, 4
	ret
	.cfi_endproc
.LFE56:
	.size	disable_8259A_irq, .-disable_8259A_irq
	.globl	init_8259A
	.type	init_8259A, @function
init_8259A:
.LFB57:
	.loc 1 121 0
	.cfi_startproc
	pushl	%ebp
	.cfi_def_cfa_offset 8
	.cfi_offset 5, -8
	movl	%esp, %ebp
	.cfi_def_cfa_register 5
	.loc 1 123 0
	popl	%ebp
	.cfi_restore 5
	.cfi_def_cfa 4, 4
	ret
	.cfi_endproc
.LFE57:
	.size	init_8259A, .-init_8259A
	.data
	.align 4
	.type	i8259A_irq_type, @object
	.size	i8259A_irq_type, 16
i8259A_irq_type:
	.long	enable_8259A_irq
	.long	disable_8259A_irq
	.long	mask_and_ack_8259A
	.long	end_8259A
	.section	.rodata
.LC2:
	.string	"irq channel number > 16 !"
	.text
	.globl	init_ISA_irqs
	.type	init_ISA_irqs, @function
init_ISA_irqs:
.LFB58:
	.loc 1 132 0
	.cfi_startproc
	pushl	%ebp
	.cfi_def_cfa_offset 8
	.cfi_offset 5, -8
	movl	%esp, %ebp
	.cfi_def_cfa_register 5
	subl	$24, %esp
	.loc 1 133 0
	pushl	$0
	call	init_8259A
	addl	$4, %esp
.LBB2:
	.loc 1 135 0
	movl	$0, -12(%ebp)
	jmp	.L30
.L33:
	.loc 1 136 0
	movl	-12(%ebp), %edx
	movl	%edx, %eax
	addl	%eax, %eax
	addl	%edx, %eax
	sall	$2, %eax
	addl	$irq_desc, %eax
	movl	$4, (%eax)
	.loc 1 137 0
	movl	-12(%ebp), %edx
	movl	%edx, %eax
	addl	%eax, %eax
	addl	%edx, %eax
	sall	$2, %eax
	addl	$irq_desc, %eax
	movl	(%eax), %eax
	leal	-2147483648(%eax), %ecx
	movl	-12(%ebp), %edx
	movl	%edx, %eax
	addl	%eax, %eax
	addl	%edx, %eax
	sall	$2, %eax
	addl	$irq_desc, %eax
	movl	%ecx, (%eax)
	.loc 1 138 0
	movl	-12(%ebp), %edx
	movl	%edx, %eax
	addl	%eax, %eax
	addl	%edx, %eax
	sall	$2, %eax
	addl	$irq_desc, %eax
	movl	$0, 4(%eax)
	.loc 1 139 0
	cmpl	$15, -12(%ebp)
	jg	.L31
	.loc 1 139 0 is_stmt 0 discriminator 1
	movl	-12(%ebp), %edx
	movl	%edx, %eax
	addl	%eax, %eax
	addl	%edx, %eax
	sall	$2, %eax
	addl	$irq_desc, %eax
	movl	$i8259A_irq_type, 8(%eax)
	jmp	.L32
.L31:
	.loc 1 140 0 is_stmt 1
	subl	$12, %esp
	pushl	$.LC2
	call	spin
	addl	$16, %esp
.L32:
	.loc 1 135 0 discriminator 2
	addl	$1, -12(%ebp)
.L30:
	.loc 1 135 0 is_stmt 0 discriminator 1
	cmpl	$15, -12(%ebp)
	jle	.L33
.LBE2:
	.loc 1 142 0 is_stmt 1
	leave
	.cfi_restore 5
	.cfi_def_cfa 4, 4
	ret
	.cfi_endproc
.LFE58:
	.size	init_ISA_irqs, .-init_ISA_irqs
.Letext0:
	.file 2 "./include/old/valType.h"
	.file 3 "./include/old/irq.h"
	.file 4 "./include/old/list.h"
	.file 5 "./include/old/mmzone.h"
	.file 6 "./include/old/ku_utils.h"
	.section	.note.GNU-stack,"",@progbits
