	.file	"schedule.c"
	.text
.Ltext0:
	.comm	list_active,4,4
	.comm	list_expire,4,4
	.comm	mem_entity,4,1
	.comm	mem_map,4,4
	.comm	zone_dma,240,64
	.comm	zone_normal,240,64
	.comm	zone_highmem,240,64
	.comm	__zones,12,4
	.comm	size_of_zone,12,4
	.type	sti, @function
sti:
.LFB34:
	.file 1 "./include/old/utils.h"
	.loc 1 194 0
	.cfi_startproc
	pushl	%ebp
	.cfi_def_cfa_offset 8
	.cfi_offset 5, -8
	movl	%esp, %ebp
	.cfi_def_cfa_register 5
	.loc 1 195 0
#APP
# 195 "./include/old/utils.h" 1
	sti
# 0 "" 2
	.loc 1 196 0
#NO_APP
	popl	%ebp
	.cfi_restore 5
	.cfi_def_cfa 4, 4
	ret
	.cfi_endproc
.LFE34:
	.size	sti, .-sti
	.type	cli_ex, @function
cli_ex:
.LFB35:
	.loc 1 202 0
	.cfi_startproc
	pushl	%ebp
	.cfi_def_cfa_offset 8
	.cfi_offset 5, -8
	movl	%esp, %ebp
	.cfi_def_cfa_register 5
	subl	$16, %esp
	.loc 1 204 0
#APP
# 204 "./include/old/utils.h" 1
	pushf
	cli
	pop %eax
	andl $0x200, %eax
	
# 0 "" 2
#NO_APP
	movl	%eax, -4(%ebp)
	.loc 1 210 0
	cmpl	$0, -4(%ebp)
	setne	%al
	.loc 1 211 0
	leave
	.cfi_restore 5
	.cfi_def_cfa 4, 4
	ret
	.cfi_endproc
.LFE35:
	.size	cli_ex, .-cli_ex
	.comm	__hs_pcb,4,4
	.comm	__ext_pcb,4,4
	.comm	dentry_hashtable,4,4
	.comm	dentry_cache,4,4
	.comm	inode_hashtable,4,4
	.comm	inode_cache,4,4
	.comm	file_cache,4,4
	.comm	ticks,4,4
	.local	list_sleep
	.comm	list_sleep,4,4
	.globl	pcb_lists
	.data
	.align 4
	.type	pcb_lists, @object
	.size	pcb_lists, 12
pcb_lists:
	.long	list_active
	.long	list_expire
	.long	list_sleep
	.section	.rodata
.LC0:
	.string	"schedule.c"
.LC1:
	.string	"list_active&&p"
	.align 4
.LC2:
	.string	"!(!p->next && !p->prev && (list_active!=p))"
.LC3:
	.string	"p"
	.text
	.globl	active_sleep
	.type	active_sleep, @function
active_sleep:
.LFB51:
	.file 2 "schedule.c"
	.loc 2 13 0
	.cfi_startproc
	pushl	%ebp
	.cfi_def_cfa_offset 8
	.cfi_offset 5, -8
	movl	%esp, %ebp
	.cfi_def_cfa_register 5
	subl	$24, %esp
	.loc 2 14 0
	call	cli_ex
	movzbl	%al, %eax
	movl	%eax, -12(%ebp)
	.loc 2 16 0
	movl	8(%ebp), %eax
	movl	12(%ebp), %edx
	movl	%edx, 48(%eax)
	.loc 2 17 0
	movl	8(%ebp), %eax
	movl	16(%ebp), %edx
	movl	%edx, 52(%eax)
	.loc 2 18 0
	movl	list_active, %eax
	testl	%eax, %eax
	je	.L5
	.loc 2 18 0 is_stmt 0 discriminator 2
	cmpl	$0, 8(%ebp)
	jne	.L6
.L5:
	.loc 2 18 0 discriminator 3
	pushl	$18
	pushl	$.LC0
	pushl	$.LC0
	pushl	$.LC1
	call	assert_func
	addl	$16, %esp
.L6:
	.loc 2 18 0 discriminator 5
	movl	8(%ebp), %eax
	movl	12(%eax), %eax
	testl	%eax, %eax
	jne	.L7
	.loc 2 18 0 discriminator 6
	movl	8(%ebp), %eax
	movl	8(%eax), %eax
	testl	%eax, %eax
	jne	.L7
	.loc 2 18 0 discriminator 8
	movl	list_active, %eax
	cmpl	8(%ebp), %eax
	je	.L7
	.loc 2 18 0 discriminator 10
	pushl	$18
	pushl	$.LC0
	pushl	$.LC0
	pushl	$.LC2
	call	assert_func
	addl	$16, %esp
.L7:
	.loc 2 18 0 discriminator 12
	movl	8(%ebp), %eax
	movl	8(%eax), %eax
	testl	%eax, %eax
	je	.L8
	.loc 2 18 0 discriminator 13
	movl	8(%ebp), %eax
	movl	8(%eax), %eax
	movl	8(%ebp), %edx
	movl	12(%edx), %edx
	movl	%edx, 12(%eax)
.L8:
	.loc 2 18 0 discriminator 15
	movl	8(%ebp), %eax
	movl	12(%eax), %eax
	testl	%eax, %eax
	je	.L9
	.loc 2 18 0 discriminator 16
	movl	8(%ebp), %eax
	movl	12(%eax), %eax
	movl	8(%ebp), %edx
	movl	8(%edx), %edx
	movl	%edx, 8(%eax)
.L9:
	.loc 2 18 0 discriminator 18
	movl	list_active, %eax
	cmpl	8(%ebp), %eax
	jne	.L10
	.loc 2 18 0 discriminator 19
	movl	8(%ebp), %eax
	movl	12(%eax), %eax
	movl	%eax, list_active
.L10:
.LBB2:
	.loc 2 19 0 is_stmt 1
	cmpl	$0, 8(%ebp)
	jne	.L11
	.loc 2 19 0 is_stmt 0 discriminator 1
	pushl	$19
	pushl	$.LC0
	pushl	$.LC0
	pushl	$.LC3
	call	assert_func
	addl	$16, %esp
.L11:
	.loc 2 19 0 discriminator 3
	movl	list_sleep, %eax
	testl	%eax, %eax
	jne	.L12
	.loc 2 19 0 discriminator 4
	movl	8(%ebp), %eax
	movl	%eax, list_sleep
	movl	8(%ebp), %eax
	movl	$0, 12(%eax)
	movl	8(%ebp), %eax
	movl	12(%eax), %edx
	movl	8(%ebp), %eax
	movl	%edx, 8(%eax)
	jmp	.L13
.L12:
	.loc 2 19 0 discriminator 5
	movl	list_sleep, %eax
	movl	%eax, -16(%ebp)
	jmp	.L14
.L16:
	.loc 2 19 0 discriminator 10
	movl	list_sleep, %eax
	movl	12(%eax), %eax
	movl	%eax, list_sleep
.L14:
	.loc 2 19 0 discriminator 6
	movl	list_sleep, %eax
	movl	12(%eax), %eax
	testl	%eax, %eax
	je	.L15
	.loc 2 19 0 discriminator 8
	movl	8(%ebp), %eax
	movl	36(%eax), %edx
	movl	list_sleep, %eax
	movl	36(%eax), %eax
	cmpl	%eax, %edx
	ja	.L16
.L15:
	.loc 2 19 0 discriminator 11
	movl	8(%ebp), %eax
	movl	36(%eax), %edx
	movl	list_sleep, %eax
	movl	36(%eax), %eax
	cmpl	%eax, %edx
	jbe	.L17
	.loc 2 19 0 discriminator 12
	movl	8(%ebp), %eax
	movl	$0, 12(%eax)
	movl	list_sleep, %edx
	movl	8(%ebp), %eax
	movl	%edx, 8(%eax)
	movl	list_sleep, %eax
	movl	8(%ebp), %edx
	movl	%edx, 12(%eax)
	movl	-16(%ebp), %eax
	movl	%eax, list_sleep
	jmp	.L13
.L17:
	.loc 2 19 0 discriminator 13
	movl	list_sleep, %edx
	movl	8(%ebp), %eax
	movl	%edx, 12(%eax)
	movl	list_sleep, %eax
	movl	8(%eax), %edx
	movl	8(%ebp), %eax
	movl	%edx, 8(%eax)
	movl	list_sleep, %eax
	movl	8(%eax), %eax
	testl	%eax, %eax
	je	.L18
	.loc 2 19 0 discriminator 14
	movl	list_sleep, %eax
	movl	8(%eax), %eax
	movl	8(%ebp), %edx
	movl	%edx, 12(%eax)
.L18:
	.loc 2 19 0 discriminator 16
	movl	list_sleep, %eax
	movl	8(%ebp), %edx
	movl	%edx, 8(%eax)
	movl	list_sleep, %eax
	cmpl	%eax, -16(%ebp)
	jne	.L19
	.loc 2 19 0 discriminator 17
	movl	8(%ebp), %eax
	movl	%eax, list_sleep
	jmp	.L13
.L19:
	.loc 2 19 0 discriminator 18
	movl	-16(%ebp), %eax
	movl	%eax, list_sleep
.L13:
.LBE2:
	.loc 2 21 0 is_stmt 1
	cmpl	$0, -12(%ebp)
	je	.L4
	.loc 2 21 0 is_stmt 0 discriminator 1
	call	sti
.L4:
	.loc 2 22 0 is_stmt 1
	leave
	.cfi_restore 5
	.cfi_def_cfa 4, 4
	ret
	.cfi_endproc
.LFE51:
	.size	active_sleep, .-active_sleep
	.globl	active_expire
	.type	active_expire, @function
active_expire:
.LFB52:
	.loc 2 24 0
	.cfi_startproc
	pushl	%ebp
	.cfi_def_cfa_offset 8
	.cfi_offset 5, -8
	movl	%esp, %ebp
	.cfi_def_cfa_register 5
	subl	$24, %esp
	.loc 2 25 0
	call	cli_ex
	movzbl	%al, %eax
	movl	%eax, -12(%ebp)
	.loc 2 27 0
	movl	list_active, %eax
	testl	%eax, %eax
	je	.L22
	.loc 2 27 0 is_stmt 0 discriminator 2
	cmpl	$0, 8(%ebp)
	jne	.L23
.L22:
	.loc 2 27 0 discriminator 3
	pushl	$27
	pushl	$.LC0
	pushl	$.LC0
	pushl	$.LC1
	call	assert_func
	addl	$16, %esp
.L23:
	.loc 2 27 0 discriminator 5
	movl	8(%ebp), %eax
	movl	12(%eax), %eax
	testl	%eax, %eax
	jne	.L24
	.loc 2 27 0 discriminator 6
	movl	8(%ebp), %eax
	movl	8(%eax), %eax
	testl	%eax, %eax
	jne	.L24
	.loc 2 27 0 discriminator 8
	movl	list_active, %eax
	cmpl	8(%ebp), %eax
	je	.L24
	.loc 2 27 0 discriminator 10
	pushl	$27
	pushl	$.LC0
	pushl	$.LC0
	pushl	$.LC2
	call	assert_func
	addl	$16, %esp
.L24:
	.loc 2 27 0 discriminator 12
	movl	8(%ebp), %eax
	movl	8(%eax), %eax
	testl	%eax, %eax
	je	.L25
	.loc 2 27 0 discriminator 13
	movl	8(%ebp), %eax
	movl	8(%eax), %eax
	movl	8(%ebp), %edx
	movl	12(%edx), %edx
	movl	%edx, 12(%eax)
.L25:
	.loc 2 27 0 discriminator 15
	movl	8(%ebp), %eax
	movl	12(%eax), %eax
	testl	%eax, %eax
	je	.L26
	.loc 2 27 0 discriminator 16
	movl	8(%ebp), %eax
	movl	12(%eax), %eax
	movl	8(%ebp), %edx
	movl	8(%edx), %edx
	movl	%edx, 8(%eax)
.L26:
	.loc 2 27 0 discriminator 18
	movl	list_active, %eax
	cmpl	8(%ebp), %eax
	jne	.L27
	.loc 2 27 0 discriminator 19
	movl	8(%ebp), %eax
	movl	12(%eax), %eax
	movl	%eax, list_active
.L27:
.LBB3:
	.loc 2 28 0 is_stmt 1
	cmpl	$0, 8(%ebp)
	jne	.L28
	.loc 2 28 0 is_stmt 0 discriminator 1
	pushl	$28
	pushl	$.LC0
	pushl	$.LC0
	pushl	$.LC3
	call	assert_func
	addl	$16, %esp
.L28:
	.loc 2 28 0 discriminator 3
	movl	list_expire, %eax
	testl	%eax, %eax
	jne	.L29
	.loc 2 28 0 discriminator 4
	movl	8(%ebp), %eax
	movl	%eax, list_expire
	movl	8(%ebp), %eax
	movl	$0, 12(%eax)
	movl	8(%ebp), %eax
	movl	12(%eax), %edx
	movl	8(%ebp), %eax
	movl	%edx, 8(%eax)
	jmp	.L30
.L29:
	.loc 2 28 0 discriminator 5
	movl	list_expire, %eax
	movl	%eax, -16(%ebp)
	jmp	.L31
.L33:
	.loc 2 28 0 discriminator 10
	movl	list_expire, %eax
	movl	12(%eax), %eax
	movl	%eax, list_expire
.L31:
	.loc 2 28 0 discriminator 6
	movl	list_expire, %eax
	movl	12(%eax), %eax
	testl	%eax, %eax
	je	.L32
	.loc 2 28 0 discriminator 8
	movl	8(%ebp), %eax
	movl	36(%eax), %edx
	movl	list_expire, %eax
	movl	36(%eax), %eax
	cmpl	%eax, %edx
	ja	.L33
.L32:
	.loc 2 28 0 discriminator 11
	movl	8(%ebp), %eax
	movl	36(%eax), %edx
	movl	list_expire, %eax
	movl	36(%eax), %eax
	cmpl	%eax, %edx
	jbe	.L34
	.loc 2 28 0 discriminator 12
	movl	8(%ebp), %eax
	movl	$0, 12(%eax)
	movl	list_expire, %edx
	movl	8(%ebp), %eax
	movl	%edx, 8(%eax)
	movl	list_expire, %eax
	movl	8(%ebp), %edx
	movl	%edx, 12(%eax)
	movl	-16(%ebp), %eax
	movl	%eax, list_expire
	jmp	.L30
.L34:
	.loc 2 28 0 discriminator 13
	movl	list_expire, %edx
	movl	8(%ebp), %eax
	movl	%edx, 12(%eax)
	movl	list_expire, %eax
	movl	8(%eax), %edx
	movl	8(%ebp), %eax
	movl	%edx, 8(%eax)
	movl	list_expire, %eax
	movl	8(%eax), %eax
	testl	%eax, %eax
	je	.L35
	.loc 2 28 0 discriminator 14
	movl	list_expire, %eax
	movl	8(%eax), %eax
	movl	8(%ebp), %edx
	movl	%edx, 12(%eax)
.L35:
	.loc 2 28 0 discriminator 16
	movl	list_expire, %eax
	movl	8(%ebp), %edx
	movl	%edx, 8(%eax)
	movl	list_expire, %eax
	cmpl	%eax, -16(%ebp)
	jne	.L36
	.loc 2 28 0 discriminator 17
	movl	8(%ebp), %eax
	movl	%eax, list_expire
	jmp	.L30
.L36:
	.loc 2 28 0 discriminator 18
	movl	-16(%ebp), %eax
	movl	%eax, list_expire
.L30:
.LBE3:
	.loc 2 30 0 is_stmt 1
	cmpl	$0, -12(%ebp)
	je	.L21
	.loc 2 30 0 is_stmt 0 discriminator 1
	call	sti
.L21:
	.loc 2 31 0 is_stmt 1
	leave
	.cfi_restore 5
	.cfi_def_cfa 4, 4
	ret
	.cfi_endproc
.LFE52:
	.size	active_expire, .-active_expire
	.section	.rodata
.LC4:
	.string	"list_sleep&&p"
	.align 4
.LC5:
	.string	"!(!p->next && !p->prev && (list_sleep!=p))"
	.text
	.globl	sleep_active
	.type	sleep_active, @function
sleep_active:
.LFB53:
	.loc 2 33 0
	.cfi_startproc
	pushl	%ebp
	.cfi_def_cfa_offset 8
	.cfi_offset 5, -8
	movl	%esp, %ebp
	.cfi_def_cfa_register 5
	subl	$24, %esp
	.loc 2 34 0
	call	cli_ex
	movzbl	%al, %eax
	movl	%eax, -12(%ebp)
	.loc 2 36 0
	movl	list_sleep, %eax
	testl	%eax, %eax
	je	.L39
	.loc 2 36 0 is_stmt 0 discriminator 2
	cmpl	$0, 8(%ebp)
	jne	.L40
.L39:
	.loc 2 36 0 discriminator 3
	pushl	$36
	pushl	$.LC0
	pushl	$.LC0
	pushl	$.LC4
	call	assert_func
	addl	$16, %esp
.L40:
	.loc 2 36 0 discriminator 5
	movl	8(%ebp), %eax
	movl	12(%eax), %eax
	testl	%eax, %eax
	jne	.L41
	.loc 2 36 0 discriminator 6
	movl	8(%ebp), %eax
	movl	8(%eax), %eax
	testl	%eax, %eax
	jne	.L41
	.loc 2 36 0 discriminator 8
	movl	list_sleep, %eax
	cmpl	8(%ebp), %eax
	je	.L41
	.loc 2 36 0 discriminator 10
	pushl	$36
	pushl	$.LC0
	pushl	$.LC0
	pushl	$.LC5
	call	assert_func
	addl	$16, %esp
.L41:
	.loc 2 36 0 discriminator 12
	movl	8(%ebp), %eax
	movl	8(%eax), %eax
	testl	%eax, %eax
	je	.L42
	.loc 2 36 0 discriminator 13
	movl	8(%ebp), %eax
	movl	8(%eax), %eax
	movl	8(%ebp), %edx
	movl	12(%edx), %edx
	movl	%edx, 12(%eax)
.L42:
	.loc 2 36 0 discriminator 15
	movl	8(%ebp), %eax
	movl	12(%eax), %eax
	testl	%eax, %eax
	je	.L43
	.loc 2 36 0 discriminator 16
	movl	8(%ebp), %eax
	movl	12(%eax), %eax
	movl	8(%ebp), %edx
	movl	8(%edx), %edx
	movl	%edx, 8(%eax)
.L43:
	.loc 2 36 0 discriminator 18
	movl	list_sleep, %eax
	cmpl	8(%ebp), %eax
	jne	.L44
	.loc 2 36 0 discriminator 19
	movl	8(%ebp), %eax
	movl	12(%eax), %eax
	movl	%eax, list_sleep
.L44:
.LBB4:
	.loc 2 37 0 is_stmt 1
	cmpl	$0, 8(%ebp)
	jne	.L45
	.loc 2 37 0 is_stmt 0 discriminator 1
	pushl	$37
	pushl	$.LC0
	pushl	$.LC0
	pushl	$.LC3
	call	assert_func
	addl	$16, %esp
.L45:
	.loc 2 37 0 discriminator 3
	movl	list_active, %eax
	testl	%eax, %eax
	jne	.L46
	.loc 2 37 0 discriminator 4
	movl	8(%ebp), %eax
	movl	%eax, list_active
	movl	8(%ebp), %eax
	movl	$0, 12(%eax)
	movl	8(%ebp), %eax
	movl	12(%eax), %edx
	movl	8(%ebp), %eax
	movl	%edx, 8(%eax)
	jmp	.L47
.L46:
	.loc 2 37 0 discriminator 5
	movl	list_active, %eax
	movl	%eax, -16(%ebp)
	jmp	.L48
.L50:
	.loc 2 37 0 discriminator 10
	movl	list_active, %eax
	movl	12(%eax), %eax
	movl	%eax, list_active
.L48:
	.loc 2 37 0 discriminator 6
	movl	list_active, %eax
	movl	12(%eax), %eax
	testl	%eax, %eax
	je	.L49
	.loc 2 37 0 discriminator 8
	movl	8(%ebp), %eax
	movl	36(%eax), %edx
	movl	list_active, %eax
	movl	36(%eax), %eax
	cmpl	%eax, %edx
	ja	.L50
.L49:
	.loc 2 37 0 discriminator 11
	movl	8(%ebp), %eax
	movl	36(%eax), %edx
	movl	list_active, %eax
	movl	36(%eax), %eax
	cmpl	%eax, %edx
	jbe	.L51
	.loc 2 37 0 discriminator 12
	movl	8(%ebp), %eax
	movl	$0, 12(%eax)
	movl	list_active, %edx
	movl	8(%ebp), %eax
	movl	%edx, 8(%eax)
	movl	list_active, %eax
	movl	8(%ebp), %edx
	movl	%edx, 12(%eax)
	movl	-16(%ebp), %eax
	movl	%eax, list_active
	jmp	.L47
.L51:
	.loc 2 37 0 discriminator 13
	movl	list_active, %edx
	movl	8(%ebp), %eax
	movl	%edx, 12(%eax)
	movl	list_active, %eax
	movl	8(%eax), %edx
	movl	8(%ebp), %eax
	movl	%edx, 8(%eax)
	movl	list_active, %eax
	movl	8(%eax), %eax
	testl	%eax, %eax
	je	.L52
	.loc 2 37 0 discriminator 14
	movl	list_active, %eax
	movl	8(%eax), %eax
	movl	8(%ebp), %edx
	movl	%edx, 12(%eax)
.L52:
	.loc 2 37 0 discriminator 16
	movl	list_active, %eax
	movl	8(%ebp), %edx
	movl	%edx, 8(%eax)
	movl	list_active, %eax
	cmpl	%eax, -16(%ebp)
	jne	.L53
	.loc 2 37 0 discriminator 17
	movl	8(%ebp), %eax
	movl	%eax, list_active
	jmp	.L47
.L53:
	.loc 2 37 0 discriminator 18
	movl	-16(%ebp), %eax
	movl	%eax, list_active
.L47:
.LBE4:
	.loc 2 39 0 is_stmt 1
	movl	8(%ebp), %eax
	movl	$0, 48(%eax)
	.loc 2 41 0
	cmpl	$0, -12(%ebp)
	je	.L38
	.loc 2 41 0 is_stmt 0 discriminator 1
	call	sti
.L38:
	.loc 2 42 0 is_stmt 1
	leave
	.cfi_restore 5
	.cfi_def_cfa 4, 4
	ret
	.cfi_endproc
.LFE53:
	.size	sleep_active, .-sleep_active
	.globl	sleep_expire
	.type	sleep_expire, @function
sleep_expire:
.LFB54:
	.loc 2 44 0
	.cfi_startproc
	pushl	%ebp
	.cfi_def_cfa_offset 8
	.cfi_offset 5, -8
	movl	%esp, %ebp
	.cfi_def_cfa_register 5
	subl	$24, %esp
	.loc 2 45 0
	call	cli_ex
	movzbl	%al, %eax
	movl	%eax, -12(%ebp)
	.loc 2 47 0
	movl	list_sleep, %eax
	testl	%eax, %eax
	je	.L56
	.loc 2 47 0 is_stmt 0 discriminator 2
	cmpl	$0, 8(%ebp)
	jne	.L57
.L56:
	.loc 2 47 0 discriminator 3
	pushl	$47
	pushl	$.LC0
	pushl	$.LC0
	pushl	$.LC4
	call	assert_func
	addl	$16, %esp
.L57:
	.loc 2 47 0 discriminator 5
	movl	8(%ebp), %eax
	movl	12(%eax), %eax
	testl	%eax, %eax
	jne	.L58
	.loc 2 47 0 discriminator 6
	movl	8(%ebp), %eax
	movl	8(%eax), %eax
	testl	%eax, %eax
	jne	.L58
	.loc 2 47 0 discriminator 8
	movl	list_sleep, %eax
	cmpl	8(%ebp), %eax
	je	.L58
	.loc 2 47 0 discriminator 10
	pushl	$47
	pushl	$.LC0
	pushl	$.LC0
	pushl	$.LC5
	call	assert_func
	addl	$16, %esp
.L58:
	.loc 2 47 0 discriminator 12
	movl	8(%ebp), %eax
	movl	8(%eax), %eax
	testl	%eax, %eax
	je	.L59
	.loc 2 47 0 discriminator 13
	movl	8(%ebp), %eax
	movl	8(%eax), %eax
	movl	8(%ebp), %edx
	movl	12(%edx), %edx
	movl	%edx, 12(%eax)
.L59:
	.loc 2 47 0 discriminator 15
	movl	8(%ebp), %eax
	movl	12(%eax), %eax
	testl	%eax, %eax
	je	.L60
	.loc 2 47 0 discriminator 16
	movl	8(%ebp), %eax
	movl	12(%eax), %eax
	movl	8(%ebp), %edx
	movl	8(%edx), %edx
	movl	%edx, 8(%eax)
.L60:
	.loc 2 47 0 discriminator 18
	movl	list_sleep, %eax
	cmpl	8(%ebp), %eax
	jne	.L61
	.loc 2 47 0 discriminator 19
	movl	8(%ebp), %eax
	movl	12(%eax), %eax
	movl	%eax, list_sleep
.L61:
.LBB5:
	.loc 2 48 0 is_stmt 1
	cmpl	$0, 8(%ebp)
	jne	.L62
	.loc 2 48 0 is_stmt 0 discriminator 1
	pushl	$48
	pushl	$.LC0
	pushl	$.LC0
	pushl	$.LC3
	call	assert_func
	addl	$16, %esp
.L62:
	.loc 2 48 0 discriminator 3
	movl	list_expire, %eax
	testl	%eax, %eax
	jne	.L63
	.loc 2 48 0 discriminator 4
	movl	8(%ebp), %eax
	movl	%eax, list_expire
	movl	8(%ebp), %eax
	movl	$0, 12(%eax)
	movl	8(%ebp), %eax
	movl	12(%eax), %edx
	movl	8(%ebp), %eax
	movl	%edx, 8(%eax)
	jmp	.L64
.L63:
	.loc 2 48 0 discriminator 5
	movl	list_expire, %eax
	movl	%eax, -16(%ebp)
	jmp	.L65
.L67:
	.loc 2 48 0 discriminator 10
	movl	list_expire, %eax
	movl	12(%eax), %eax
	movl	%eax, list_expire
.L65:
	.loc 2 48 0 discriminator 6
	movl	list_expire, %eax
	movl	12(%eax), %eax
	testl	%eax, %eax
	je	.L66
	.loc 2 48 0 discriminator 8
	movl	8(%ebp), %eax
	movl	36(%eax), %edx
	movl	list_expire, %eax
	movl	36(%eax), %eax
	cmpl	%eax, %edx
	ja	.L67
.L66:
	.loc 2 48 0 discriminator 11
	movl	8(%ebp), %eax
	movl	36(%eax), %edx
	movl	list_expire, %eax
	movl	36(%eax), %eax
	cmpl	%eax, %edx
	jbe	.L68
	.loc 2 48 0 discriminator 12
	movl	8(%ebp), %eax
	movl	$0, 12(%eax)
	movl	list_expire, %edx
	movl	8(%ebp), %eax
	movl	%edx, 8(%eax)
	movl	list_expire, %eax
	movl	8(%ebp), %edx
	movl	%edx, 12(%eax)
	movl	-16(%ebp), %eax
	movl	%eax, list_expire
	jmp	.L64
.L68:
	.loc 2 48 0 discriminator 13
	movl	list_expire, %edx
	movl	8(%ebp), %eax
	movl	%edx, 12(%eax)
	movl	list_expire, %eax
	movl	8(%eax), %edx
	movl	8(%ebp), %eax
	movl	%edx, 8(%eax)
	movl	list_expire, %eax
	movl	8(%eax), %eax
	testl	%eax, %eax
	je	.L69
	.loc 2 48 0 discriminator 14
	movl	list_expire, %eax
	movl	8(%eax), %eax
	movl	8(%ebp), %edx
	movl	%edx, 12(%eax)
.L69:
	.loc 2 48 0 discriminator 16
	movl	list_expire, %eax
	movl	8(%ebp), %edx
	movl	%edx, 8(%eax)
	movl	list_expire, %eax
	cmpl	%eax, -16(%ebp)
	jne	.L70
	.loc 2 48 0 discriminator 17
	movl	8(%ebp), %eax
	movl	%eax, list_expire
	jmp	.L64
.L70:
	.loc 2 48 0 discriminator 18
	movl	-16(%ebp), %eax
	movl	%eax, list_expire
.L64:
.LBE5:
	.loc 2 49 0 is_stmt 1
	movl	8(%ebp), %eax
	movl	$0, 48(%eax)
	.loc 2 51 0
	cmpl	$0, -12(%ebp)
	je	.L55
	.loc 2 51 0 is_stmt 0 discriminator 1
	call	sti
.L55:
	.loc 2 52 0 is_stmt 1
	leave
	.cfi_restore 5
	.cfi_def_cfa 4, 4
	ret
	.cfi_endproc
.LFE54:
	.size	sleep_expire, .-sleep_expire
	.section	.rodata
.LC6:
	.string	"%u"
.LC7:
	.string	"^"
.LC8:
	.string	"current->time_slice > 0"
.LC9:
	.string	"switch"
.LC10:
	.string	"%x"
.LC11:
	.string	"#"
	.text
	.globl	do_timer
	.type	do_timer, @function
do_timer:
.LFB55:
	.loc 2 53 0
	.cfi_startproc
	pushl	%ebp
	.cfi_def_cfa_offset 8
	.cfi_offset 5, -8
	movl	%esp, %ebp
	.cfi_def_cfa_register 5
	subl	$56, %esp
	.loc 2 56 0
	movl	ticks, %eax
	addl	$1, %eax
	movl	%eax, ticks
	.loc 2 57 0
	movl	ticks, %ecx
	movl	$1374389535, %edx
	movl	%ecx, %eax
	mull	%edx
	movl	%edx, %eax
	shrl	$5, %eax
	imull	$100, %eax, %eax
	subl	%eax, %ecx
	movl	%ecx, %eax
	testl	%eax, %eax
	jne	.L73
.LBB6:
	.loc 2 58 0
	movl	$0, -48(%ebp)
	movl	$0, -44(%ebp)
	movl	$0, -40(%ebp)
	movl	$0, -36(%ebp)
	movb	$-108, -48(%ebp)
	movb	$32, -47(%ebp)
	.loc 2 59 0
	movl	ticks, %eax
	movl	$1374389535, %edx
	mull	%edx
	movl	%edx, %eax
	shrl	$5, %eax
	subl	$4, %esp
	pushl	%eax
	pushl	$.LC6
	leal	-32(%ebp), %eax
	pushl	%eax
	call	sprintf
	addl	$16, %esp
	.loc 2 60 0
	leal	-32(%ebp), %eax
	pushl	%eax
	leal	-48(%ebp), %eax
	pushl	%eax
	pushl	$0
	pushl	$0
	call	write_bar
	addl	$16, %esp
.L73:
.LBE6:
	.loc 2 62 0
	movl	ticks, %ecx
	movl	$458129845, %edx
	movl	%ecx, %eax
	mull	%edx
	movl	%edx, %eax
	shrl	$5, %eax
	imull	$300, %eax, %eax
	subl	%eax, %ecx
	movl	%ecx, %eax
	testl	%eax, %eax
	jne	.L74
	.loc 2 62 0 is_stmt 0 discriminator 1
	subl	$12, %esp
	pushl	$.LC7
	call	oprintf
	addl	$16, %esp
.L74:
	.loc 2 64 0 is_stmt 1
	movl	8(%ebp), %eax
	movl	52(%eax), %eax
	andl	$3, %eax
	testl	%eax, %eax
	je	.L75
	.loc 2 65 0
	call	get_current
	movl	40(%eax), %eax
	testl	%eax, %eax
	jne	.L76
	.loc 2 65 0 is_stmt 0 discriminator 1
	pushl	$65
	pushl	$.LC0
	pushl	$.LC0
	pushl	$.LC8
	call	assert_func
	addl	$16, %esp
.L76:
	.loc 2 66 0 is_stmt 1
	call	get_current
	movl	40(%eax), %edx
	subl	$1, %edx
	movl	%edx, 40(%eax)
	movl	40(%eax), %eax
	testl	%eax, %eax
	jne	.L75
	.loc 2 67 0
	subl	$12, %esp
	pushl	$.LC9
	call	oprintf
	addl	$16, %esp
	.loc 2 68 0
	call	get_current
	subl	$12, %esp
	pushl	%eax
	call	active_expire
	addl	$16, %esp
	.loc 2 69 0
	call	get_current
	movl	$1, (%eax)
.L75:
	.loc 2 72 0
	call	get_current
	movl	40(%eax), %eax
	subl	$4, %esp
	pushl	%eax
	pushl	$.LC10
	leal	-32(%ebp), %eax
	pushl	%eax
	call	sprintf
	addl	$16, %esp
	.loc 2 73 0
	leal	-32(%ebp), %eax
	pushl	%eax
	pushl	$.LC11
	pushl	$1
	pushl	$0
	call	write_bar
	addl	$16, %esp
	.loc 2 76 0
	movl	list_sleep, %eax
	movl	%eax, -12(%ebp)
	.loc 2 77 0
	jmp	.L77
.L80:
.LBB7:
	.loc 2 79 0
	movl	-12(%ebp), %eax
	movl	12(%eax), %eax
	movl	%eax, -16(%ebp)
	.loc 2 80 0
	movl	-12(%ebp), %eax
	movl	48(%eax), %eax
	cmpl	$255, %eax
	jne	.L78
	.loc 2 81 0
	movl	-12(%ebp), %eax
	movl	52(%eax), %eax
	leal	-1(%eax), %edx
	movl	-12(%ebp), %eax
	movl	%edx, 52(%eax)
	.loc 2 83 0
	movl	-12(%ebp), %eax
	movl	52(%eax), %eax
	testl	%eax, %eax
	jne	.L78
	.loc 2 88 0
	movl	-12(%ebp), %eax
	movl	40(%eax), %eax
	testl	%eax, %eax
	je	.L79
	.loc 2 89 0
	subl	$12, %esp
	pushl	-12(%ebp)
	call	sleep_active
	addl	$16, %esp
	.loc 2 91 0
	call	get_current
	movl	$1, (%eax)
	jmp	.L78
.L79:
	.loc 2 93 0
	subl	$12, %esp
	pushl	-12(%ebp)
	call	sleep_expire
	addl	$16, %esp
.L78:
	.loc 2 96 0
	movl	-16(%ebp), %eax
	movl	%eax, -12(%ebp)
.L77:
.LBE7:
	.loc 2 77 0
	cmpl	$0, -12(%ebp)
	jne	.L80
	.loc 2 99 0
	leave
	.cfi_restore 5
	.cfi_def_cfa 4, 4
	ret
	.cfi_endproc
.LFE55:
	.size	do_timer, .-do_timer
	.globl	schedule
	.type	schedule, @function
schedule:
.LFB56:
	.loc 2 105 0
	.cfi_startproc
	pushl	%ebp
	.cfi_def_cfa_offset 8
	.cfi_offset 5, -8
	movl	%esp, %ebp
	.cfi_def_cfa_register 5
	pushl	%edi
	pushl	%esi
	pushl	%ebx
	subl	$28, %esp
	.cfi_offset 7, -12
	.cfi_offset 6, -16
	.cfi_offset 3, -20
	.loc 2 107 0
	call	cli_ex
	movzbl	%al, %eax
	movl	%eax, -36(%ebp)
	.loc 2 110 0
	call	get_current
	movl	$0, (%eax)
	.loc 2 111 0
	movl	$0, -28(%ebp)
	.loc 2 120 0
	movl	list_active, %eax
	testl	%eax, %eax
	jne	.L82
	.loc 2 120 0 is_stmt 0 discriminator 1
	movl	list_expire, %eax
	testl	%eax, %eax
	je	.L82
.LBB8:
	.loc 2 121 0 is_stmt 1
	movl	list_expire, %eax
	movl	%eax, -32(%ebp)
	.loc 2 122 0
	jmp	.L83
.L84:
	.loc 2 123 0
	movl	-32(%ebp), %eax
	movl	44(%eax), %edx
	movl	-32(%ebp), %eax
	movl	%edx, 40(%eax)
	.loc 2 124 0
	movl	-32(%ebp), %eax
	movl	12(%eax), %eax
	movl	%eax, -32(%ebp)
.L83:
	.loc 2 122 0
	cmpl	$0, -32(%ebp)
	jne	.L84
.LBB9:
	.loc 2 126 0
	movl	list_active, %eax
	movl	%eax, -40(%ebp)
	movl	list_expire, %eax
	movl	%eax, list_active
	movl	-40(%ebp), %eax
	movl	%eax, list_expire
.L82:
.LBE9:
.LBE8:
	.loc 2 129 0
	movl	list_active, %eax
	testl	%eax, %eax
	je	.L85
	.loc 2 129 0 is_stmt 0 discriminator 1
	movl	list_active, %eax
	movl	%eax, -28(%ebp)
	jmp	.L86
.L85:
	.loc 2 131 0 is_stmt 1
	movl	idle, %eax
	movl	%eax, -28(%ebp)
.L86:
	.loc 2 133 0
	call	get_current
	cmpl	-28(%ebp), %eax
	jne	.L87
	.loc 2 139 0
	jmp	.L81
.L87:
	.loc 2 146 0
	movl	-28(%ebp), %eax
	movl	56(%eax), %eax
	testl	%eax, %eax
	je	.L89
	.loc 2 156 0
	movl	-28(%ebp), %eax
	addl	$8192, %eax
	movl	%eax, base_tss+4
	.loc 2 161 0
	movl	-28(%ebp), %eax
	movl	56(%eax), %eax
	movl	(%eax), %eax
	.loc 2 159 0
#APP
# 159 "schedule.c" 1
	movl %eax, %cr3
	
# 0 "" 2
#NO_APP
.L89:
	.loc 2 192 0
	call	get_current
	movl	%eax, %esi
	call	get_current
	movl	%eax, %edi
	.loc 2 193 0
	call	get_current
	movl	%eax, %ecx
	.loc 2 171 0
	movl	-28(%ebp), %eax
	movl	-28(%ebp), %edx
	movl	%ecx, %ebx
#APP
# 171 "schedule.c" 1
	pushfl
	pushl %esi
	pushl %edi
	pushl %ebp
	movl %esp, 60(%esi)
	movl $1f, 64(%edi)
	movl 60(%eax), %esp
	jmp *64(%edx)
	1:
	popl %ebp
	popl %edi
	popl %esi
	popfl
	
# 0 "" 2
	.loc 2 195 0
#NO_APP
	cmpl	$0, -36(%ebp)
	je	.L90
	.loc 2 195 0 is_stmt 0 discriminator 1
	call	sti
.L90:
	.loc 2 198 0 is_stmt 1 discriminator 2
	nop
.L81:
	.loc 2 199 0
	addl	$28, %esp
	popl	%ebx
	.cfi_restore 3
	popl	%esi
	.cfi_restore 6
	popl	%edi
	.cfi_restore 7
	popl	%ebp
	.cfi_restore 5
	.cfi_def_cfa 4, 4
	ret
	.cfi_endproc
.LFE56:
	.size	schedule, .-schedule
	.globl	schedule_timeout
	.type	schedule_timeout, @function
schedule_timeout:
.LFB57:
	.loc 2 202 0
	.cfi_startproc
	pushl	%ebp
	.cfi_def_cfa_offset 8
	.cfi_offset 5, -8
	movl	%esp, %ebp
	.cfi_def_cfa_register 5
	pushl	%ebx
	subl	$20, %esp
	.cfi_offset 3, -12
	.loc 2 203 0
	movl	8(%ebp), %eax
	subl	$1, %eax
	movl	$-858993459, %edx
	mull	%edx
	movl	%edx, %eax
	shrl	$3, %eax
	addl	$1, %eax
	movl	%eax, -12(%ebp)
	.loc 2 204 0
	movl	-12(%ebp), %ebx
	call	get_current
	subl	$4, %esp
	pushl	%ebx
	pushl	$255
	pushl	%eax
	call	active_sleep
	addl	$16, %esp
	.loc 2 205 0
	call	schedule
	.loc 2 206 0
	movl	-12(%ebp), %eax
	.loc 2 207 0
	movl	-4(%ebp), %ebx
	leave
	.cfi_restore 5
	.cfi_restore 3
	.cfi_def_cfa 4, 4
	ret
	.cfi_endproc
.LFE57:
	.size	schedule_timeout, .-schedule_timeout
	.globl	kp_sleep
	.type	kp_sleep, @function
kp_sleep:
.LFB58:
	.loc 2 212 0
	.cfi_startproc
	pushl	%ebp
	.cfi_def_cfa_offset 8
	.cfi_offset 5, -8
	movl	%esp, %ebp
	.cfi_def_cfa_register 5
	subl	$8, %esp
	.loc 2 213 0
	call	get_current
	subl	$4, %esp
	pushl	12(%ebp)
	pushl	8(%ebp)
	pushl	%eax
	call	active_sleep
	addl	$16, %esp
	.loc 2 214 0
	call	schedule
	.loc 2 223 0
	leave
	.cfi_restore 5
	.cfi_def_cfa 4, 4
	ret
	.cfi_endproc
.LFE58:
	.size	kp_sleep, .-kp_sleep
	.globl	wake_up
	.type	wake_up, @function
wake_up:
.LFB59:
	.loc 2 225 0
	.cfi_startproc
	pushl	%ebp
	.cfi_def_cfa_offset 8
	.cfi_offset 5, -8
	movl	%esp, %ebp
	.cfi_def_cfa_register 5
	subl	$8, %esp
	.loc 2 226 0
	subl	$12, %esp
	pushl	8(%ebp)
	call	sleep_active
	addl	$16, %esp
	.loc 2 227 0
	leave
	.cfi_restore 5
	.cfi_def_cfa 4, 4
	ret
	.cfi_endproc
.LFE59:
	.size	wake_up, .-wake_up
	.globl	kthread_sleep
	.type	kthread_sleep, @function
kthread_sleep:
.LFB60:
	.loc 2 228 0
	.cfi_startproc
	pushl	%ebp
	.cfi_def_cfa_offset 8
	.cfi_offset 5, -8
	movl	%esp, %ebp
	.cfi_def_cfa_register 5
	subl	$8, %esp
	.loc 2 229 0
	call	get_current
	subl	$4, %esp
	pushl	12(%ebp)
	pushl	8(%ebp)
	pushl	%eax
	call	active_sleep
	addl	$16, %esp
	.loc 2 230 0
#APP
# 230 "schedule.c" 1
	int $0x81
# 0 "" 2
	.loc 2 231 0
#NO_APP
	nop
	.loc 2 232 0
	leave
	.cfi_restore 5
	.cfi_def_cfa 4, 4
	ret
	.cfi_endproc
.LFE60:
	.size	kthread_sleep, .-kthread_sleep
.Letext0:
	.file 3 "./include/old/valType.h"
	.file 4 "./include/old/list.h"
	.file 5 "./arch/x86/include/asm/page.h"
	.file 6 "./include/old/mmzone.h"
	.file 7 "./include/linux/sched.h"
	.file 8 "./include/linux/mm.h"
	.file 9 "./include/linux/fs.h"
	.file 10 "./include/asm/resource.h"
	.file 11 "./include/old/proc.h"
	.file 12 "./include/linux/dcache.h"
	.file 13 "./include/linux/mount.h"
	.file 14 "./include/old/schedule.h"
	.file 15 "./include/old/ku_utils.h"
	.section	.note.GNU-stack,"",@progbits
