	.file	"time.c"
	.text
.Ltext0:
	.comm	irq_desc,192,64
	.comm	bh_flags,4,4
	.local	time_bh
	.comm	time_bh,4,4
	.type	timer_interrupt, @function
timer_interrupt:
.LFB13:
	.file 1 "time.c"
	.loc 1 7 0
	.cfi_startproc
	pushl	%ebp
	.cfi_def_cfa_offset 8
	.cfi_offset 5, -8
	movl	%esp, %ebp
	.cfi_def_cfa_register 5
	subl	$8, %esp
	.loc 1 9 0
	subl	$12, %esp
	pushl	16(%ebp)
	call	do_timer
	addl	$16, %esp
	.loc 1 10 0
	movl	time_bh, %eax
	subl	$12, %esp
	pushl	%eax
	call	mark_bh
	addl	$16, %esp
	.loc 1 11 0
	leave
	.cfi_restore 5
	.cfi_def_cfa 4, 4
	ret
	.cfi_endproc
.LFE13:
	.size	timer_interrupt, .-timer_interrupt
	.globl	time_bottomhalf
	.type	time_bottomhalf, @function
time_bottomhalf:
.LFB14:
	.loc 1 13 0
	.cfi_startproc
	pushl	%ebp
	.cfi_def_cfa_offset 8
	.cfi_offset 5, -8
	movl	%esp, %ebp
	.cfi_def_cfa_register 5
	subl	$8, %esp
	.loc 1 14 0
	call	my_timerlist_dida
	.loc 1 15 0
	movl	$0, %eax
	.loc 1 16 0
	leave
	.cfi_restore 5
	.cfi_def_cfa 4, 4
	ret
	.cfi_endproc
.LFE14:
	.size	time_bottomhalf, .-time_bottomhalf
	.globl	init_time
	.type	init_time, @function
init_time:
.LFB15:
	.loc 1 17 0
	.cfi_startproc
	pushl	%ebp
	.cfi_def_cfa_offset 8
	.cfi_offset 5, -8
	movl	%esp, %ebp
	.cfi_def_cfa_register 5
	subl	$8, %esp
	.loc 1 19 0
	pushl	$0
	pushl	$2
	pushl	$timer_interrupt
	pushl	$0
	call	request_irq
	addl	$16, %esp
	.loc 1 21 0
	movl	irq_desc, %eax
	andl	$-5, %eax
	movl	%eax, irq_desc
	.loc 1 22 0
	subl	$8, %esp
	pushl	$0
	pushl	$time_bottomhalf
	call	alloc_bh
	addl	$16, %esp
	movl	%eax, time_bh
	.loc 1 23 0
	call	init_mytimer
	.loc 1 24 0
	leave
	.cfi_restore 5
	.cfi_def_cfa 4, 4
	ret
	.cfi_endproc
.LFE15:
	.size	init_time, .-init_time
.Letext0:
	.file 2 "./include/old/irq.h"
	.file 3 "./include/linux/bh.h"
	.section	.note.GNU-stack,"",@progbits
